target datalayout = "e-m:e-p270:32:32-p271:32:32-p272:64:64-i64:64-i128:128-f80:128-n8:16:32:64-S128"
target triple = "x86_64-pc-linux-gnu"

@.str.70 = private unnamed_addr constant [7 x i8] c"KEYVAL\00", align 1
@.str.71 = private unnamed_addr constant [4 x i8] c"KEY\00", align 1
@.str.72 = private unnamed_addr constant [4 x i8] c"VAL\00", align 1
@.str.73 = private unnamed_addr constant [4 x i8] c"MAP\00", align 1
@.str.74 = private unnamed_addr constant [4 x i8] c"SEQ\00", align 1
@.str.75 = private unnamed_addr constant [7 x i8] c"KEYMAP\00", align 1
@.str.76 = private unnamed_addr constant [7 x i8] c"KEYSEQ\00", align 1
@.str.77 = private unnamed_addr constant [7 x i8] c"DOCSEQ\00", align 1
@.str.78 = private unnamed_addr constant [7 x i8] c"DOCMAP\00", align 1
@.str.79 = private unnamed_addr constant [7 x i8] c"DOCVAL\00", align 1
@.str.80 = private unnamed_addr constant [4 x i8] c"DOC\00", align 1
@.str.81 = private unnamed_addr constant [7 x i8] c"STREAM\00", align 1
@.str.82 = private unnamed_addr constant [7 x i8] c"NOTYPE\00", align 1
@.str.83 = private unnamed_addr constant [10 x i8] c"KEYVAL***\00", align 1
@.str.84 = private unnamed_addr constant [10 x i8] c"KEYMAP***\00", align 1
@.str.85 = private unnamed_addr constant [10 x i8] c"KEYSEQ***\00", align 1
@.str.86 = private unnamed_addr constant [10 x i8] c"DOCSEQ***\00", align 1
@.str.87 = private unnamed_addr constant [10 x i8] c"DOCMAP***\00", align 1
@.str.88 = private unnamed_addr constant [10 x i8] c"DOCVAL***\00", align 1
@.str.89 = private unnamed_addr constant [7 x i8] c"KEY***\00", align 1
@.str.90 = private unnamed_addr constant [7 x i8] c"VAL***\00", align 1
@.str.91 = private unnamed_addr constant [7 x i8] c"MAP***\00", align 1
@.str.92 = private unnamed_addr constant [7 x i8] c"SEQ***\00", align 1
@.str.93 = private unnamed_addr constant [7 x i8] c"DOC***\00", align 1
@.str.94 = private unnamed_addr constant [6 x i8] c"(unk)\00", align 1

; Function Attrs: mustprogress nounwind uwtable
define noundef ptr @_ZN2c43yml8NodeType8type_strENS0_10NodeType_eE(i64 noundef %0) #0 align 2 {
  %2 = alloca ptr, align 8
  %3 = alloca i64, align 8
  store i64 %0, ptr %3, align 8, !tbaa !94
  %4 = load i64, ptr %3, align 8, !tbaa !94
  %5 = and i64 %4, 4095
  switch i64 %5, label %19 [
    i64 3, label %6
    i64 2, label %7
    i64 1, label %8
    i64 4, label %9
    i64 8, label %10
    i64 6, label %11
    i64 10, label %12
    i64 24, label %13
    i64 20, label %14
    i64 17, label %15
    i64 16, label %16
    i64 40, label %17
    i64 0, label %18
  ]

6:                                                ; preds = %1
  store ptr @.str.70, ptr %2, align 8
  br label %75

7:                                                ; preds = %1
  store ptr @.str.71, ptr %2, align 8
  br label %75

8:                                                ; preds = %1
  store ptr @.str.72, ptr %2, align 8
  br label %75

9:                                                ; preds = %1
  store ptr @.str.73, ptr %2, align 8
  br label %75

10:                                               ; preds = %1
  store ptr @.str.74, ptr %2, align 8
  br label %75

11:                                               ; preds = %1
  store ptr @.str.75, ptr %2, align 8
  br label %75

12:                                               ; preds = %1
  store ptr @.str.76, ptr %2, align 8
  br label %75

13:                                               ; preds = %1
  store ptr @.str.77, ptr %2, align 8
  br label %75

14:                                               ; preds = %1
  store ptr @.str.78, ptr %2, align 8
  br label %75

15:                                               ; preds = %1
  store ptr @.str.79, ptr %2, align 8
  br label %75

16:                                               ; preds = %1
  store ptr @.str.80, ptr %2, align 8
  br label %75

17:                                               ; preds = %1
  store ptr @.str.81, ptr %2, align 8
  br label %75

18:                                               ; preds = %1
  store ptr @.str.82, ptr %2, align 8
  br label %75

19:                                               ; preds = %1
  %20 = load i64, ptr %3, align 8, !tbaa !94
  %21 = and i64 %20, 3
  %22 = icmp eq i64 %21, 3
  br i1 %22, label %23, label %24

23:                                               ; preds = %19
  store ptr @.str.83, ptr %2, align 8
  br label %75

24:                                               ; preds = %19
  %25 = load i64, ptr %3, align 8, !tbaa !94
  %26 = and i64 %25, 6
  %27 = icmp eq i64 %26, 6
  br i1 %27, label %28, label %29

28:                                               ; preds = %24
  store ptr @.str.84, ptr %2, align 8
  br label %75

29:                                               ; preds = %24
  %30 = load i64, ptr %3, align 8, !tbaa !94
  %31 = and i64 %30, 10
  %32 = icmp eq i64 %31, 10
  br i1 %32, label %33, label %34

33:                                               ; preds = %29
  store ptr @.str.85, ptr %2, align 8
  br label %75

34:                                               ; preds = %29
  %35 = load i64, ptr %3, align 8, !tbaa !94
  %36 = and i64 %35, 24
  %37 = icmp eq i64 %36, 24
  br i1 %37, label %38, label %39

38:                                               ; preds = %34
  store ptr @.str.86, ptr %2, align 8
  br label %75

39:                                               ; preds = %34
  %40 = load i64, ptr %3, align 8, !tbaa !94
  %41 = and i64 %40, 20
  %42 = icmp eq i64 %41, 20
  br i1 %42, label %43, label %44

43:                                               ; preds = %39
  store ptr @.str.87, ptr %2, align 8
  br label %75

44:                                               ; preds = %39
  %45 = load i64, ptr %3, align 8, !tbaa !94
  %46 = and i64 %45, 17
  %47 = icmp eq i64 %46, 17
  br i1 %47, label %48, label %49

48:                                               ; preds = %44
  store ptr @.str.88, ptr %2, align 8
  br label %75

49:                                               ; preds = %44
  %50 = load i64, ptr %3, align 8, !tbaa !94
  %51 = and i64 %50, 2
  %52 = icmp ne i64 %51, 0
  br i1 %52, label %53, label %54

53:                                               ; preds = %49
  store ptr @.str.89, ptr %2, align 8
  br label %75

54:                                               ; preds = %49
  %55 = load i64, ptr %3, align 8, !tbaa !94
  %56 = and i64 %55, 1
  %57 = icmp ne i64 %56, 0
  br i1 %57, label %58, label %59

58:                                               ; preds = %54
  store ptr @.str.90, ptr %2, align 8
  br label %75

59:                                               ; preds = %54
  %60 = load i64, ptr %3, align 8, !tbaa !94
  %61 = and i64 %60, 4
  %62 = icmp ne i64 %61, 0
  br i1 %62, label %63, label %64

63:                                               ; preds = %59
  store ptr @.str.91, ptr %2, align 8
  br label %75

64:                                               ; preds = %59
  %65 = load i64, ptr %3, align 8, !tbaa !94
  %66 = and i64 %65, 8
  %67 = icmp ne i64 %66, 0
  br i1 %67, label %68, label %69

68:                                               ; preds = %64
  store ptr @.str.92, ptr %2, align 8
  br label %75

69:                                               ; preds = %64
  %70 = load i64, ptr %3, align 8, !tbaa !94
  %71 = and i64 %70, 16
  %72 = icmp ne i64 %71, 0
  br i1 %72, label %73, label %74

73:                                               ; preds = %69
  store ptr @.str.93, ptr %2, align 8
  br label %75

74:                                               ; preds = %69
  store ptr @.str.94, ptr %2, align 8
  br label %75

75:                                               ; preds = %74, %73, %68, %63, %58, %53, %48, %43, %38, %33, %28, %23, %18, %17, %16, %15, %14, %13, %12, %11, %10, %9, %8, %7, %6
  %76 = load ptr, ptr %2, align 8
  ret ptr %76
}