; Function Attrs: mustprogress nofree norecurse nosync nounwind willreturn memory(none) uwtable
define noundef nonnull ptr @_ZN2c43yml8NodeType8type_strENS0_10NodeType_eE(i64 noundef %0) local_unnamed_addr #0 align 2 {
  %2 = and i64 %0, 4095
  switch i64 %2, label %15 [
    i64 3, label %43
    i64 2, label %3
    i64 1, label %4
    i64 4, label %5
    i64 8, label %6
    i64 6, label %7
    i64 10, label %8
    i64 24, label %9
    i64 20, label %10
    i64 17, label %11
    i64 16, label %12
    i64 40, label %13
    i64 0, label %14
  ]

3:                                                ; preds = %1
  br label %43

4:                                                ; preds = %1
  br label %43

5:                                                ; preds = %1
  br label %43

6:                                                ; preds = %1
  br label %43

7:                                                ; preds = %1
  br label %43

8:                                                ; preds = %1
  br label %43

9:                                                ; preds = %1
  br label %43

10:                                               ; preds = %1
  br label %43

11:                                               ; preds = %1
  br label %43

12:                                               ; preds = %1
  br label %43

13:                                               ; preds = %1
  br label %43

14:                                               ; preds = %1
  br label %43

15:                                               ; preds = %1
  %16 = and i64 %0, 3
  %17 = icmp eq i64 %16, 3
  br i1 %17, label %43, label %18

18:                                               ; preds = %15
  %19 = and i64 %0, 6
  %20 = icmp eq i64 %19, 6
  br i1 %20, label %43, label %21

21:                                               ; preds = %18
  %22 = and i64 %0, 10
  %23 = icmp eq i64 %22, 10
  br i1 %23, label %43, label %24

24:                                               ; preds = %21
  %25 = and i64 %0, 24
  %26 = icmp eq i64 %25, 24
  br i1 %26, label %43, label %27

27:                                               ; preds = %24
  %28 = and i64 %0, 20
  %29 = icmp eq i64 %28, 20
  br i1 %29, label %43, label %30

30:                                               ; preds = %27
  %31 = and i64 %0, 17
  %32 = icmp eq i64 %31, 17
  br i1 %32, label %43, label %33

33:                                               ; preds = %30
  %34 = and i64 %0, 2
  %.not = icmp eq i64 %34, 0
  br i1 %.not, label %35, label %43

35:                                               ; preds = %33
  %36 = and i64 %0, 1
  %.not12 = icmp eq i64 %36, 0
  br i1 %.not12, label %37, label %43

37:                                               ; preds = %35
  %38 = and i64 %0, 4
  %.not13 = icmp eq i64 %38, 0
  br i1 %.not13, label %39, label %43

39:                                               ; preds = %37
  %40 = and i64 %0, 8
  %.not14 = icmp eq i64 %40, 0
  br i1 %.not14, label %41, label %43

41:                                               ; preds = %39
  %42 = and i64 %0, 16
  %.not15 = icmp eq i64 %42, 0
  %.str.94..str.93 = select i1 %.not15, ptr @.str.94, ptr @.str.93
  br label %43

43:                                               ; preds = %41, %39, %37, %35, %33, %30, %27, %24, %21, %18, %15, %1, %14, %13, %12, %11, %10, %9, %8, %7, %6, %5, %4, %3
  %.0 = phi ptr [ @.str.82, %14 ], [ @.str.81, %13 ], [ @.str.80, %12 ], [ @.str.79, %11 ], [ @.str.78, %10 ], [ @.str.77, %9 ], [ @.str.76, %8 ], [ @.str.75, %7 ], [ @.str.74, %6 ], [ @.str.73, %5 ], [ @.str.72, %4 ], [ @.str.71, %3 ], [ @.str.70, %1 ], [ @.str.83, %15 ], [ @.str.84, %18 ], [ @.str.85, %21 ], [ @.str.86, %24 ], [ @.str.87, %27 ], [ @.str.88, %30 ], [ @.str.89, %33 ], [ @.str.90, %35 ], [ @.str.91, %37 ], [ @.str.92, %39 ], [ %.str.94..str.93, %41 ]
  ret ptr %.0
}